target datalayout = "e-m:e-p270:32:32-p271:32:32-p272:64:64-i64:64-i128:128-f80:128-n8:16:32:64-S128"
target triple = "x86_64-pc-linux-gnu"

%struct.expert_field = type { i32, i32 }
%struct._asn1_ctx_t = type { i32, i32, i8, ptr, ptr, ptr, ptr, ptr, %struct.anon, %struct.anon.2, %struct.anon.3, ptr }
%struct.anon = type { i32, i8, i8, i8, ptr, ptr, i32, i32, ptr, ptr, ptr, %union.anon }
%union.anon = type { %struct.anon.0 }
%struct.anon.0 = type { ptr }
%struct.anon.2 = type { ptr, ptr, ptr }
%struct.anon.3 = type { i32, i8, ptr, i32, i32, ptr, ptr, ptr, %union.anon.4 }
%union.anon.4 = type { %struct.anon.5 }
%struct.anon.5 = type { ptr }

@hf_spnego_krb5 = internal global i32 0, align 4
@hf_spnego_krb5_oid = internal global i32 0, align 4
@hf_spnego_krb5_tok_id = internal global i32 0, align 4
@hf_spnego_krb5_sgn_cksum = internal global i32 0, align 4
@hf_spnego_krb5_filler = internal global i32 0, align 4
@hf_spnego_krb5_cfx_flags = internal global i32 0, align 4
@hf_spnego_krb5_cfx_seq = internal global i32 0, align 4
@ett_spnego_krb5 = internal global i32 0, align 4
@ett_spnego_krb5_cfx_flags = internal global i32 0, align 4
@ei_spnego_unknown_header = internal global %struct.expert_field zeroinitializer, align 4
@.str.133 = private unnamed_addr constant [41 x i8] c"Unknown header (class=%d, pc=%d, tag=%d)\00", align 1
@dissect_spnego_krb5_cfx_flags.flags = internal constant [4 x ptr] [ptr @hf_spnego_krb5_cfx_flags_04, ptr @hf_spnego_krb5_cfx_flags_02, ptr @hf_spnego_krb5_cfx_flags_01, ptr null], align 16

; Function Attrs: nounwind uwtable
define internal i32 @dissect_spnego_krb5_cfx_flags(ptr noundef %0, i32 noundef %1, ptr noundef %2, i8 noundef zeroext %3) #0 {
  %5 = alloca ptr, align 8
  %6 = alloca i32, align 4
  %7 = alloca ptr, align 8
  %8 = alloca i8, align 1
  store ptr %0, ptr %5, align 8
  store i32 %1, ptr %6, align 4
  store ptr %2, ptr %7, align 8
  store i8 %3, ptr %8, align 1
  %9 = load ptr, ptr %7, align 8
  %10 = load ptr, ptr %5, align 8
  %11 = load i32, ptr %6, align 4
  %12 = load i32, ptr @hf_spnego_krb5_cfx_flags, align 4
  %13 = load i32, ptr @ett_spnego_krb5_cfx_flags, align 4
  %14 = call ptr @proto_tree_add_bitmask(ptr noundef %9, ptr noundef %10, i32 noundef %11, i32 noundef %12, i32 noundef %13, ptr noundef @dissect_spnego_krb5_cfx_flags.flags, i32 noundef 0)
  %15 = load i32, ptr %6, align 4
  %16 = add i32 %15, 1
  ret i32 %16
}

; Function Attrs: nounwind uwtable
define internal i32 @dissect_spnego_krb5_cfx_getmic_base(ptr noundef %0, i32 noundef %1, ptr noundef %2, ptr noundef %3) #0 {
  %5 = alloca ptr, align 8
  %6 = alloca i32, align 4
  %7 = alloca ptr, align 8
  %8 = alloca ptr, align 8
  %9 = alloca i8, align 1
  %10 = alloca i32, align 4
  store ptr %0, ptr %5, align 8
  store i32 %1, ptr %6, align 4
  store ptr %2, ptr %7, align 8
  store ptr %3, ptr %8, align 8
  %11 = load ptr, ptr %5, align 8
  %12 = load i32, ptr %6, align 4
  %13 = call zeroext i8 @tvb_get_guint8(ptr noundef %11, i32 noundef %12)
  store i8 %13, ptr %9, align 1
  %14 = load ptr, ptr %5, align 8
  %15 = load i32, ptr %6, align 4
  %16 = load ptr, ptr %8, align 8
  %17 = load i8, ptr %9, align 1
  %18 = call i32 @dissect_spnego_krb5_cfx_flags(ptr noundef %14, i32 noundef %15, ptr noundef %16, i8 noundef zeroext %17)
  store i32 %18, ptr %6, align 4
  %19 = load ptr, ptr %8, align 8
  %20 = load i32, ptr @hf_spnego_krb5_filler, align 4
  %21 = load ptr, ptr %5, align 8
  %22 = load i32, ptr %6, align 4
  %23 = call ptr @proto_tree_add_item(ptr noundef %19, i32 noundef %20, ptr noundef %21, i32 noundef %22, i32 noundef 5, i32 noundef 0)
  %24 = load i32, ptr %6, align 4
  %25 = add i32 %24, 5
  store i32 %25, ptr %6, align 4
  %26 = load ptr, ptr %8, align 8
  %27 = load i32, ptr @hf_spnego_krb5_cfx_seq, align 4
  %28 = load ptr, ptr %5, align 8
  %29 = load i32, ptr %6, align 4
  %30 = call ptr @proto_tree_add_item(ptr noundef %26, i32 noundef %27, ptr noundef %28, i32 noundef %29, i32 noundef 8, i32 noundef 0)
  %31 = load i32, ptr %6, align 4
  %32 = add i32 %31, 8
  store i32 %32, ptr %6, align 4
  %33 = load ptr, ptr %5, align 8
  %34 = load i32, ptr %6, align 4
  %35 = call i32 @tvb_captured_length_remaining(ptr noundef %33, i32 noundef %34)
  store i32 %35, ptr %10, align 4
  %36 = load ptr, ptr %8, align 8
  %37 = load i32, ptr @hf_spnego_krb5_sgn_cksum, align 4
  %38 = load ptr, ptr %5, align 8
  %39 = load i32, ptr %6, align 4
  %40 = load i32, ptr %10, align 4
  %41 = call ptr @proto_tree_add_item(ptr noundef %36, i32 noundef %37, ptr noundef %38, i32 noundef %39, i32 noundef %40, i32 noundef 0)
  %42 = load i32, ptr %10, align 4
  %43 = load i32, ptr %6, align 4
  %44 = add i32 %43, %42
  store i32 %44, ptr %6, align 4
  %45 = load i32, ptr %6, align 4
  ret i32 %45
}

; Function Attrs: nounwind uwtable
define internal i32 @dissect_spnego_krb5(ptr noundef %0, ptr noundef %1, ptr noundef %2, ptr noundef %3) #0 {
  %5 = alloca i32, align 4
  %6 = alloca ptr, align 8
  %7 = alloca ptr, align 8
  %8 = alloca ptr, align 8
  %9 = alloca ptr, align 8
  %10 = alloca ptr, align 8
  %11 = alloca ptr, align 8
  %12 = alloca i32, align 4
  %13 = alloca i16, align 2
  %14 = alloca ptr, align 8
  %15 = alloca ptr, align 8
  %16 = alloca i8, align 1
  %17 = alloca i8, align 1
  %18 = alloca i8, align 1
  %19 = alloca i32, align 4
  %20 = alloca i32, align 4
  %21 = alloca ptr, align 8
  %22 = alloca %struct._asn1_ctx_t, align 8
  store ptr %0, ptr %6, align 8
  store ptr %1, ptr %7, align 8
  store ptr %2, ptr %8, align 8
  store ptr %3, ptr %9, align 8
  store i32 0, ptr %12, align 4
  store i8 0, ptr %18, align 1
  %23 = load ptr, ptr %9, align 8
  store ptr %23, ptr %21, align 8
  %24 = load ptr, ptr %7, align 8
  call void @asn1_ctx_init(ptr noundef %22, i32 noundef 0, i1 noundef zeroext true, ptr noundef %24)
  %25 = load ptr, ptr %8, align 8
  %26 = load i32, ptr @hf_spnego_krb5, align 4
  %27 = load ptr, ptr %6, align 8
  %28 = load i32, ptr %12, align 4
  %29 = call ptr @proto_tree_add_item(ptr noundef %25, i32 noundef %26, ptr noundef %27, i32 noundef %28, i32 noundef -1, i32 noundef 0)
  store ptr %29, ptr %10, align 8
  %30 = load ptr, ptr %10, align 8
  %31 = load i32, ptr @ett_spnego_krb5, align 4
  %32 = call ptr @proto_item_add_subtree(ptr noundef %30, i32 noundef %31)
  store ptr %32, ptr %11, align 8
  %33 = load ptr, ptr %6, align 8
  %34 = load i32, ptr %12, align 4
  %35 = call i32 @get_ber_identifier(ptr noundef %33, i32 noundef %34, ptr noundef %16, ptr noundef %17, ptr noundef %19)
  %36 = load i8, ptr %16, align 1
  %37 = sext i8 %36 to i32
  %38 = icmp eq i32 %37, 1
  br i1 %38, label %39, label %92

39:                                               ; preds = %4
  %40 = load i8, ptr %17, align 1
  %41 = trunc i8 %40 to i1
  br i1 %41, label %42, label %92

42:                                               ; preds = %39
  %43 = load ptr, ptr %7, align 8
  %44 = load ptr, ptr %11, align 8
  %45 = load ptr, ptr %6, align 8
  %46 = load i32, ptr %12, align 4
  %47 = call i32 @dissect_ber_identifier(ptr noundef %43, ptr noundef %44, ptr noundef %45, i32 noundef %46, ptr noundef %16, ptr noundef %17, ptr noundef %19)
  store i32 %47, ptr %12, align 4
  %48 = load ptr, ptr %7, align 8
  %49 = load ptr, ptr %11, align 8
  %50 = load ptr, ptr %6, align 8
  %51 = load i32, ptr %12, align 4
  %52 = call i32 @dissect_ber_length(ptr noundef %48, ptr noundef %49, ptr noundef %50, i32 noundef %51, ptr noundef %20, ptr noundef %18)
  store i32 %52, ptr %12, align 4
  %53 = load i32, ptr %19, align 4
  switch i32 %53, label %79 [
    i32 0, label %54
    i32 14, label %72
    i32 15, label %72
  ]

54:                                               ; preds = %42
  %55 = load ptr, ptr %11, align 8
  %56 = load ptr, ptr %6, align 8
  %57 = load i32, ptr %12, align 4
  %58 = load i32, ptr @hf_spnego_krb5_oid, align 4
  %59 = call i32 @dissect_ber_object_identifier_str(i1 noundef zeroext false, ptr noundef %22, ptr noundef %55, ptr noundef %56, i32 noundef %57, i32 noundef %58, ptr noundef %14)
  store i32 %59, ptr %12, align 4
  %60 = load ptr, ptr %6, align 8
  %61 = load i32, ptr %12, align 4
  %62 = call zeroext i16 @tvb_get_letohs(ptr noundef %60, i32 noundef %61)
  store i16 %62, ptr %13, align 2
  %63 = load ptr, ptr %11, align 8
  %64 = load i32, ptr @hf_spnego_krb5_tok_id, align 4
  %65 = load ptr, ptr %6, align 8
  %66 = load i32, ptr %12, align 4
  %67 = load i16, ptr %13, align 2
  %68 = zext i16 %67 to i32
  %69 = call ptr @proto_tree_add_uint(ptr noundef %63, i32 noundef %64, ptr noundef %65, i32 noundef %66, i32 noundef 2, i32 noundef %68)
  %70 = load i32, ptr %12, align 4
  %71 = add i32 %70, 2
  store i32 %71, ptr %12, align 4
  br label %91

72:                                               ; preds = %42, %42
  %73 = load ptr, ptr %6, align 8
  %74 = load ptr, ptr %7, align 8
  %75 = load ptr, ptr %11, align 8
  %76 = call i32 @dissect_kerberos_main(ptr noundef %73, ptr noundef %74, ptr noundef %75, i32 noundef 0, ptr noundef null)
  %77 = load ptr, ptr %6, align 8
  %78 = call i32 @tvb_captured_length(ptr noundef %77)
  store i32 %78, ptr %5, align 4
  br label %164

79:                                               ; preds = %42
  %80 = load ptr, ptr %11, align 8
  %81 = load ptr, ptr %7, align 8
  %82 = load ptr, ptr %6, align 8
  %83 = load i32, ptr %12, align 4
  %84 = load i8, ptr %16, align 1
  %85 = sext i8 %84 to i32
  %86 = load i8, ptr %17, align 1
  %87 = trunc i8 %86 to i1
  %88 = zext i1 %87 to i32
  %89 = load i32, ptr %19, align 4
  %90 = call ptr (ptr, ptr, ptr, ptr, i32, i32, ptr, ...) @proto_tree_add_expert_format(ptr noundef %80, ptr noundef %81, ptr noundef @ei_spnego_unknown_header, ptr noundef %82, i32 noundef %83, i32 noundef 0, ptr noundef @.str.133, i32 noundef %85, i32 noundef %88, i32 noundef %89)
  br label %159

91:                                               ; preds = %54
  br label %105

92:                                               ; preds = %39, %4
  %93 = load ptr, ptr %6, align 8
  %94 = load i32, ptr %12, align 4
  %95 = call zeroext i16 @tvb_get_letohs(ptr noundef %93, i32 noundef %94)
  store i16 %95, ptr %13, align 2
  %96 = load ptr, ptr %11, align 8
  %97 = load i32, ptr @hf_spnego_krb5_tok_id, align 4
  %98 = load ptr, ptr %6, align 8
  %99 = load i32, ptr %12, align 4
  %100 = load i16, ptr %13, align 2
  %101 = zext i16 %100 to i32
  %102 = call ptr @proto_tree_add_uint(ptr noundef %96, i32 noundef %97, ptr noundef %98, i32 noundef %99, i32 noundef 2, i32 noundef %101)
  %103 = load i32, ptr %12, align 4
  %104 = add i32 %103, 2
  store i32 %104, ptr %12, align 4
  br label %105

105:                                              ; preds = %92, %91
  %106 = load i16, ptr %13, align 2
  %107 = zext i16 %106 to i32
  switch i32 %107, label %157 [
    i32 4, label %108
    i32 260, label %113
    i32 1, label %118
    i32 2, label %118
    i32 3, label %118
    i32 257, label %128
    i32 258, label %134
    i32 513, label %142
    i32 1028, label %143
    i32 1029, label %149
  ]

108:                                              ; preds = %105
  %109 = load ptr, ptr %6, align 8
  %110 = load i32, ptr %12, align 4
  %111 = load ptr, ptr %11, align 8
  %112 = call i32 @dissect_kerberos_TGT_REQ(i1 noundef zeroext false, ptr noundef %109, i32 noundef %110, ptr noundef %22, ptr noundef %111, i32 noundef -1)
  store i32 %112, ptr %12, align 4
  br label %158

113:                                              ; preds = %105
  %114 = load ptr, ptr %6, align 8
  %115 = load i32, ptr %12, align 4
  %116 = load ptr, ptr %11, align 8
  %117 = call i32 @dissect_kerberos_TGT_REP(i1 noundef zeroext false, ptr noundef %114, i32 noundef %115, ptr noundef %22, ptr noundef %116, i32 noundef -1)
  store i32 %117, ptr %12, align 4
  br label %158

118:                                              ; preds = %105, %105, %105
  %119 = load ptr, ptr %6, align 8
  %120 = load i32, ptr %12, align 4
  %121 = call ptr @tvb_new_subset_remaining(ptr noundef %119, i32 noundef %120)
  store ptr %121, ptr %15, align 8
  %122 = load ptr, ptr %15, align 8
  %123 = load ptr, ptr %7, align 8
  %124 = load ptr, ptr %11, align 8
  %125 = call i32 @dissect_kerberos_main(ptr noundef %122, ptr noundef %123, ptr noundef %124, i32 noundef 0, ptr noundef null)
  %126 = load i32, ptr %12, align 4
  %127 = add i32 %126, %125
  store i32 %127, ptr %12, align 4
  br label %158

128:                                              ; preds = %105
  %129 = load ptr, ptr %6, align 8
  %130 = load i32, ptr %12, align 4
  %131 = load ptr, ptr %7, align 8
  %132 = load ptr, ptr %11, align 8
  %133 = call i32 @dissect_spnego_krb5_getmic_base(ptr noundef %129, i32 noundef %130, ptr noundef %131, ptr noundef %132)
  store i32 %133, ptr %12, align 4
  br label %158

134:                                              ; preds = %105
  %135 = load ptr, ptr %6, align 8
  %136 = load i32, ptr %12, align 4
  %137 = load ptr, ptr %7, align 8
  %138 = load ptr, ptr %11, align 8
  %139 = load i16, ptr %13, align 2
  %140 = load ptr, ptr %21, align 8
  %141 = call i32 @dissect_spnego_krb5_wrap_base(ptr noundef %135, i32 noundef %136, ptr noundef %137, ptr noundef %138, i16 noundef zeroext %139, ptr noundef %140)
  store i32 %141, ptr %12, align 4
  br label %158

142:                                              ; preds = %105
  br label %158

143:                                              ; preds = %105
  %144 = load ptr, ptr %6, align 8
  %145 = load i32, ptr %12, align 4
  %146 = load ptr, ptr %7, align 8
  %147 = load ptr, ptr %11, align 8
  %148 = call i32 @dissect_spnego_krb5_cfx_getmic_base(ptr noundef %144, i32 noundef %145, ptr noundef %146, ptr noundef %147)
  store i32 %148, ptr %12, align 4
  br label %158

149:                                              ; preds = %105
  %150 = load ptr, ptr %6, align 8
  %151 = load i32, ptr %12, align 4
  %152 = load ptr, ptr %7, align 8
  %153 = load ptr, ptr %11, align 8
  %154 = load i16, ptr %13, align 2
  %155 = load ptr, ptr %21, align 8
  %156 = call i32 @dissect_spnego_krb5_cfx_wrap_base(ptr noundef %150, i32 noundef %151, ptr noundef %152, ptr noundef %153, i16 noundef zeroext %154, ptr noundef %155)
  store i32 %156, ptr %12, align 4
  br label %158

157:                                              ; preds = %105
  br label %158

158:                                              ; preds = %157, %149, %143, %142, %134, %128, %118, %113, %108
  br label %159

159:                                              ; preds = %158, %79
  %160 = load ptr, ptr %10, align 8
  %161 = load i32, ptr %12, align 4
  call void @proto_item_set_len(ptr noundef %160, i32 noundef %161)
  %162 = load ptr, ptr %6, align 8
  %163 = call i32 @tvb_captured_length(ptr noundef %162)
  store i32 %163, ptr %5, align 4
  br label %164

164:                                              ; preds = %159, %72
  %165 = load i32, ptr %5, align 4
  ret i32 %165
}