; Function Attrs: nounwind uwtable
define internal i32 @dissect_spnego_krb5(ptr noundef %0, ptr noundef %1, ptr noundef %2, ptr noundef %3) #0 {
  %5 = alloca ptr, align 8
  %6 = alloca i8, align 1
  %7 = alloca i8, align 1
  %8 = alloca i8, align 1
  %9 = alloca i32, align 4
  %10 = alloca i32, align 4
  %11 = alloca %struct._asn1_ctx_t, align 8
  store i8 0, ptr %8, align 1
  call void @asn1_ctx_init(ptr noundef nonnull %11, i32 noundef 0, i1 noundef zeroext true, ptr noundef %1) #6
  %12 = load i32, ptr @hf_spnego_krb5, align 4
  %13 = call ptr @proto_tree_add_item(ptr noundef %2, i32 noundef %12, ptr noundef %0, i32 noundef 0, i32 noundef -1, i32 noundef 0) #6
  %14 = load i32, ptr @ett_spnego_krb5, align 4
  %15 = call ptr @proto_item_add_subtree(ptr noundef %13, i32 noundef %14) #6
  %16 = call i32 @get_ber_identifier(ptr noundef %0, i32 noundef 0, ptr noundef nonnull %6, ptr noundef nonnull %7, ptr noundef nonnull %9) #6
  %17 = load i8, ptr %6, align 1
  %18 = icmp eq i8 %17, 1
  br i1 %18, label %19, label %43

19:                                               ; preds = %4
  %20 = load i8, ptr %7, align 1
  %21 = trunc i8 %20 to i1
  br i1 %21, label %22, label %43

22:                                               ; preds = %19
  %23 = call i32 @dissect_ber_identifier(ptr noundef %1, ptr noundef %15, ptr noundef %0, i32 noundef 0, ptr noundef nonnull %6, ptr noundef nonnull %7, ptr noundef nonnull %9) #6
  %24 = call i32 @dissect_ber_length(ptr noundef %1, ptr noundef %15, ptr noundef %0, i32 noundef %23, ptr noundef nonnull %10, ptr noundef nonnull %8) #6
  %25 = load i32, ptr %9, align 4
  switch i32 %25, label %36 [
    i32 0, label %26
    i32 14, label %34
    i32 15, label %34
  ]

26:                                               ; preds = %22
  %27 = load i32, ptr @hf_spnego_krb5_oid, align 4
  %28 = call i32 @dissect_ber_object_identifier_str(i1 noundef zeroext false, ptr noundef nonnull %11, ptr noundef %15, ptr noundef %0, i32 noundef %24, i32 noundef %27, ptr noundef nonnull %5) #6
  %29 = call zeroext i16 @tvb_get_letohs(ptr noundef %0, i32 noundef %28) #6
  %30 = load i32, ptr @hf_spnego_krb5_tok_id, align 4
  %31 = zext i16 %29 to i32
  %32 = call ptr @proto_tree_add_uint(ptr noundef %15, i32 noundef %30, ptr noundef %0, i32 noundef %28, i32 noundef 2, i32 noundef %31) #6
  %33 = add i32 %28, 2
  br label %48

34:                                               ; preds = %22, %22
  %35 = call i32 @dissect_kerberos_main(ptr noundef %0, ptr noundef %1, ptr noundef %15, i32 noundef 0, ptr noundef null) #6
  br label %80

36:                                               ; preds = %22
  %37 = load i8, ptr %6, align 1
  %38 = sext i8 %37 to i32
  %39 = load i8, ptr %7, align 1
  %40 = and i8 %39, 1
  %41 = zext nneg i8 %40 to i32
  %42 = call ptr (ptr, ptr, ptr, ptr, i32, i32, ptr, ...) @proto_tree_add_expert_format(ptr noundef %15, ptr noundef %1, ptr noundef nonnull @ei_spnego_unknown_header, ptr noundef %0, i32 noundef %24, i32 noundef 0, ptr noundef nonnull @.str.133, i32 noundef %38, i32 noundef %41, i32 noundef %25) #6
  br label %79

43:                                               ; preds = %19, %4
  %44 = call zeroext i16 @tvb_get_letohs(ptr noundef %0, i32 noundef 0) #6
  %45 = load i32, ptr @hf_spnego_krb5_tok_id, align 4
  %46 = zext i16 %44 to i32
  %47 = call ptr @proto_tree_add_uint(ptr noundef %15, i32 noundef %45, ptr noundef %0, i32 noundef 0, i32 noundef 2, i32 noundef %46) #6
  br label %48

48:                                               ; preds = %43, %26
  %.078 = phi i16 [ %29, %26 ], [ %44, %43 ]
  %.1 = phi i32 [ %33, %26 ], [ 2, %43 ]
  switch i16 %.078, label %79 [
    i16 4, label %49
    i16 260, label %51
    i16 1, label %53
    i16 2, label %53
    i16 3, label %53
    i16 257, label %57
    i16 258, label %59
    i16 1029, label %77
    i16 1028, label %61
  ]

49:                                               ; preds = %48
  %50 = call i32 @dissect_kerberos_TGT_REQ(i1 noundef zeroext false, ptr noundef %0, i32 noundef %.1, ptr noundef nonnull %11, ptr noundef %15, i32 noundef -1) #6
  br label %79

51:                                               ; preds = %48
  %52 = call i32 @dissect_kerberos_TGT_REP(i1 noundef zeroext false, ptr noundef %0, i32 noundef %.1, ptr noundef nonnull %11, ptr noundef %15, i32 noundef -1) #6
  br label %79

53:                                               ; preds = %48, %48, %48
  %54 = call ptr @tvb_new_subset_remaining(ptr noundef %0, i32 noundef %.1) #6
  %55 = call i32 @dissect_kerberos_main(ptr noundef %54, ptr noundef %1, ptr noundef %15, i32 noundef 0, ptr noundef null) #6
  %56 = add i32 %55, %.1
  br label %79

57:                                               ; preds = %48
  %58 = call fastcc i32 @dissect_spnego_krb5_getmic_base(ptr noundef %0, i32 noundef %.1, ptr noundef %15)
  br label %79

59:                                               ; preds = %48
  %60 = call fastcc i32 @dissect_spnego_krb5_wrap_base(ptr noundef %0, i32 noundef %.1, ptr noundef %1, ptr noundef %15, i16 noundef zeroext 258, ptr noundef %3)
  br label %79

61:                                               ; preds = %48
  %62 = call zeroext i8 @tvb_get_guint8(ptr noundef %0, i32 noundef %.1) #6
  %63 = load i32, ptr @hf_spnego_krb5_cfx_flags, align 4
  %64 = load i32, ptr @ett_spnego_krb5_cfx_flags, align 4
  %65 = call ptr @proto_tree_add_bitmask(ptr noundef %15, ptr noundef %0, i32 noundef %.1, i32 noundef %63, i32 noundef %64, ptr noundef nonnull @dissect_spnego_krb5_cfx_flags.flags, i32 noundef 0) #6
  %66 = add i32 %.1, 1
  %67 = load i32, ptr @hf_spnego_krb5_filler, align 4
  %68 = call ptr @proto_tree_add_item(ptr noundef %15, i32 noundef %67, ptr noundef %0, i32 noundef %66, i32 noundef 5, i32 noundef 0) #6
  %69 = add i32 %.1, 6
  %70 = load i32, ptr @hf_spnego_krb5_cfx_seq, align 4
  %71 = call ptr @proto_tree_add_item(ptr noundef %15, i32 noundef %70, ptr noundef %0, i32 noundef %69, i32 noundef 8, i32 noundef 0) #6
  %72 = add i32 %.1, 14
  %73 = call i32 @tvb_captured_length_remaining(ptr noundef %0, i32 noundef %72) #6
  %74 = load i32, ptr @hf_spnego_krb5_sgn_cksum, align 4
  %75 = call ptr @proto_tree_add_item(ptr noundef %15, i32 noundef %74, ptr noundef %0, i32 noundef %72, i32 noundef %73, i32 noundef 0) #6
  %76 = add i32 %73, %72
  br label %79

77:                                               ; preds = %48
  %78 = call fastcc i32 @dissect_spnego_krb5_cfx_wrap_base(ptr noundef %0, i32 noundef %.1, ptr noundef %1, ptr noundef %15, ptr noundef %3)
  br label %79

79:                                               ; preds = %49, %51, %53, %57, %59, %61, %77, %48, %36
  %.077 = phi i32 [ %24, %36 ], [ %.1, %48 ], [ %76, %61 ], [ %78, %77 ], [ %60, %59 ], [ %58, %57 ], [ %56, %53 ], [ %52, %51 ], [ %50, %49 ]
  call void @proto_item_set_len(ptr noundef %13, i32 noundef %.077) #6
  br label %80

80:                                               ; preds = %79, %34
  %81 = call i32 @tvb_captured_length(ptr noundef %0) #6
  ret i32 %81
}